; Function Attrs: mustprogress nofree norecurse nosync nounwind willreturn memory(argmem: read) uwtable
define range(i32 0, 655415536) i32 @PQfullProtocolVersion(ptr noundef readonly captures(address_is_null) %0) local_unnamed_addr #14 {
  %.not = icmp eq ptr %0, null
  br i1 %.not, label %13, label %2

2:                                                ; preds = %1
  %3 = getelementptr inbounds nuw i8, ptr %0, i64 416
  %4 = load i32, ptr %3, align 8
  %5 = icmp eq i32 %4, 1
  br i1 %5, label %13, label %6

6:                                                ; preds = %2
  %7 = getelementptr inbounds nuw i8, ptr %0, i64 800
  %8 = load i32, ptr %7, align 8
  %9 = lshr i32 %8, 16
  %10 = mul nuw nsw i32 %9, 10000
  %11 = and i32 %8, 65535
  %12 = add nuw nsw i32 %10, %11
  br label %13

13:                                               ; preds = %2, %1, %6
  %.0 = phi i32 [ %12, %6 ], [ 0, %1 ], [ 0, %2 ]
  ret i32 %.0
}